; Function Attrs: mustprogress uwtable
define void @_ZNK11Point3Value16fillToXMLElementER11QDomElement(ptr nocapture noundef nonnull readonly align 8 dereferenceable(20) %0, ptr noundef nonnull align 8 dereferenceable(8) %1) unnamed_addr #1 align 2 personality ptr @__gxx_personality_v0 {
  %3 = alloca %class.QString, align 8
  %4 = alloca %class.QString, align 8
  %5 = alloca %class.QString, align 8
  %6 = alloca %class.QString, align 8
  %7 = alloca %class.QString, align 8
  %8 = alloca %class.QString, align 8
  %9 = tail call noundef ptr @_ZN7QString16fromAscii_helperEPKci(ptr noundef nonnull @.str.4, i32 noundef 1)
  store ptr %9, ptr %3, align 8
  %10 = getelementptr inbounds i8, ptr %0, i64 8
  %11 = load float, ptr %10, align 8
  %12 = fpext float %11 to double
  invoke void @_ZN7QString6numberEdci(ptr dead_on_unwind nonnull writable sret(%class.QString) align 8 %4, double noundef %12, i8 noundef signext 103, i32 noundef 6)
          to label %13 unwind label %51

13:                                               ; preds = %2
  invoke void @_ZN11QDomElement12setAttributeERK7QStringS2_(ptr noundef nonnull align 8 dereferenceable(8) %1, ptr noundef nonnull align 8 dereferenceable(8) %3, ptr noundef nonnull align 8 dereferenceable(8) %4)
          to label %14 unwind label %53

14:                                               ; preds = %13
  %15 = load ptr, ptr %4, align 8
  %16 = load atomic i32, ptr %15 monotonic, align 4
  switch i32 %16, label %_ZN9QtPrivate8RefCount5derefEv.exit.i [
    i32 0, label %_ZN9QtPrivate8RefCount5derefEv.exit.thread2.i
    i32 -1, label %_ZN7QStringD2Ev.exit
  ]

_ZN9QtPrivate8RefCount5derefEv.exit.i:            ; preds = %14
  %17 = atomicrmw sub ptr %15, i32 1 seq_cst, align 4
  %.not.i = icmp eq i32 %17, 1
  br i1 %.not.i, label %_ZN9QtPrivate8RefCount5derefEv.exit._ZN9QtPrivate8RefCount5derefEv.exit.thread2_crit_edge.i, label %_ZN7QStringD2Ev.exit

_ZN9QtPrivate8RefCount5derefEv.exit._ZN9QtPrivate8RefCount5derefEv.exit.thread2_crit_edge.i: ; preds = %_ZN9QtPrivate8RefCount5derefEv.exit.i
  %.pre.i = load ptr, ptr %4, align 8
  br label %_ZN9QtPrivate8RefCount5derefEv.exit.thread2.i

_ZN9QtPrivate8RefCount5derefEv.exit.thread2.i:    ; preds = %_ZN9QtPrivate8RefCount5derefEv.exit._ZN9QtPrivate8RefCount5derefEv.exit.thread2_crit_edge.i, %14
  %18 = phi ptr [ %.pre.i, %_ZN9QtPrivate8RefCount5derefEv.exit._ZN9QtPrivate8RefCount5derefEv.exit.thread2_crit_edge.i ], [ %15, %14 ]
  call void @_ZN10QArrayData10deallocateEPS_mm(ptr noundef %18, i64 noundef 2, i64 noundef 8) #16
  br label %_ZN7QStringD2Ev.exit

_ZN7QStringD2Ev.exit:                             ; preds = %14, %_ZN9QtPrivate8RefCount5derefEv.exit.i, %_ZN9QtPrivate8RefCount5derefEv.exit.thread2.i
  %19 = load ptr, ptr %3, align 8
  %20 = load atomic i32, ptr %19 monotonic, align 4
  switch i32 %20, label %_ZN9QtPrivate8RefCount5derefEv.exit.i16 [
    i32 0, label %_ZN9QtPrivate8RefCount5derefEv.exit.thread2.i15
    i32 -1, label %_ZN7QStringD2Ev.exit20
  ]

_ZN9QtPrivate8RefCount5derefEv.exit.i16:          ; preds = %_ZN7QStringD2Ev.exit
  %21 = atomicrmw sub ptr %19, i32 1 seq_cst, align 4
  %.not.i17 = icmp eq i32 %21, 1
  br i1 %.not.i17, label %_ZN9QtPrivate8RefCount5derefEv.exit._ZN9QtPrivate8RefCount5derefEv.exit.thread2_crit_edge.i18, label %_ZN7QStringD2Ev.exit20

_ZN9QtPrivate8RefCount5derefEv.exit._ZN9QtPrivate8RefCount5derefEv.exit.thread2_crit_edge.i18: ; preds = %_ZN9QtPrivate8RefCount5derefEv.exit.i16
  %.pre.i19 = load ptr, ptr %3, align 8
  br label %_ZN9QtPrivate8RefCount5derefEv.exit.thread2.i15

_ZN9QtPrivate8RefCount5derefEv.exit.thread2.i15:  ; preds = %_ZN9QtPrivate8RefCount5derefEv.exit._ZN9QtPrivate8RefCount5derefEv.exit.thread2_crit_edge.i18, %_ZN7QStringD2Ev.exit
  %22 = phi ptr [ %.pre.i19, %_ZN9QtPrivate8RefCount5derefEv.exit._ZN9QtPrivate8RefCount5derefEv.exit.thread2_crit_edge.i18 ], [ %19, %_ZN7QStringD2Ev.exit ]
  call void @_ZN10QArrayData10deallocateEPS_mm(ptr noundef %22, i64 noundef 2, i64 noundef 8) #16
  br label %_ZN7QStringD2Ev.exit20

_ZN7QStringD2Ev.exit20:                           ; preds = %_ZN7QStringD2Ev.exit, %_ZN9QtPrivate8RefCount5derefEv.exit.i16, %_ZN9QtPrivate8RefCount5derefEv.exit.thread2.i15
  %23 = call noundef ptr @_ZN7QString16fromAscii_helperEPKci(ptr noundef nonnull @.str.5, i32 noundef 1)
  store ptr %23, ptr %5, align 8
  %24 = getelementptr inbounds i8, ptr %0, i64 12
  %25 = load float, ptr %24, align 4
  %26 = fpext float %25 to double
  invoke void @_ZN7QString6numberEdci(ptr dead_on_unwind nonnull writable sret(%class.QString) align 8 %6, double noundef %26, i8 noundef signext 103, i32 noundef 6)
          to label %27 unwind label %55

27:                                               ; preds = %_ZN7QStringD2Ev.exit20
  invoke void @_ZN11QDomElement12setAttributeERK7QStringS2_(ptr noundef nonnull align 8 dereferenceable(8) %1, ptr noundef nonnull align 8 dereferenceable(8) %5, ptr noundef nonnull align 8 dereferenceable(8) %6)
          to label %28 unwind label %57

28:                                               ; preds = %27
  %29 = load ptr, ptr %6, align 8
  %30 = load atomic i32, ptr %29 monotonic, align 4
  switch i32 %30, label %_ZN9QtPrivate8RefCount5derefEv.exit.i22 [
    i32 0, label %_ZN9QtPrivate8RefCount5derefEv.exit.thread2.i21
    i32 -1, label %_ZN7QStringD2Ev.exit26
  ]

_ZN9QtPrivate8RefCount5derefEv.exit.i22:          ; preds = %28
  %31 = atomicrmw sub ptr %29, i32 1 seq_cst, align 4
  %.not.i23 = icmp eq i32 %31, 1
  br i1 %.not.i23, label %_ZN9QtPrivate8RefCount5derefEv.exit._ZN9QtPrivate8RefCount5derefEv.exit.thread2_crit_edge.i24, label %_ZN7QStringD2Ev.exit26

_ZN9QtPrivate8RefCount5derefEv.exit._ZN9QtPrivate8RefCount5derefEv.exit.thread2_crit_edge.i24: ; preds = %_ZN9QtPrivate8RefCount5derefEv.exit.i22
  %.pre.i25 = load ptr, ptr %6, align 8
  br label %_ZN9QtPrivate8RefCount5derefEv.exit.thread2.i21

_ZN9QtPrivate8RefCount5derefEv.exit.thread2.i21:  ; preds = %_ZN9QtPrivate8RefCount5derefEv.exit._ZN9QtPrivate8RefCount5derefEv.exit.thread2_crit_edge.i24, %28
  %32 = phi ptr [ %.pre.i25, %_ZN9QtPrivate8RefCount5derefEv.exit._ZN9QtPrivate8RefCount5derefEv.exit.thread2_crit_edge.i24 ], [ %29, %28 ]
  call void @_ZN10QArrayData10deallocateEPS_mm(ptr noundef %32, i64 noundef 2, i64 noundef 8) #16
  br label %_ZN7QStringD2Ev.exit26

_ZN7QStringD2Ev.exit26:                           ; preds = %28, %_ZN9QtPrivate8RefCount5derefEv.exit.i22, %_ZN9QtPrivate8RefCount5derefEv.exit.thread2.i21
  %33 = load ptr, ptr %5, align 8
  %34 = load atomic i32, ptr %33 monotonic, align 4
  switch i32 %34, label %_ZN9QtPrivate8RefCount5derefEv.exit.i28 [
    i32 0, label %_ZN9QtPrivate8RefCount5derefEv.exit.thread2.i27
    i32 -1, label %_ZN7QStringD2Ev.exit32
  ]

_ZN9QtPrivate8RefCount5derefEv.exit.i28:          ; preds = %_ZN7QStringD2Ev.exit26
  %35 = atomicrmw sub ptr %33, i32 1 seq_cst, align 4
  %.not.i29 = icmp eq i32 %35, 1
  br i1 %.not.i29, label %_ZN9QtPrivate8RefCount5derefEv.exit._ZN9QtPrivate8RefCount5derefEv.exit.thread2_crit_edge.i30, label %_ZN7QStringD2Ev.exit32

_ZN9QtPrivate8RefCount5derefEv.exit._ZN9QtPrivate8RefCount5derefEv.exit.thread2_crit_edge.i30: ; preds = %_ZN9QtPrivate8RefCount5derefEv.exit.i28
  %.pre.i31 = load ptr, ptr %5, align 8
  br label %_ZN9QtPrivate8RefCount5derefEv.exit.thread2.i27

_ZN9QtPrivate8RefCount5derefEv.exit.thread2.i27:  ; preds = %_ZN9QtPrivate8RefCount5derefEv.exit._ZN9QtPrivate8RefCount5derefEv.exit.thread2_crit_edge.i30, %_ZN7QStringD2Ev.exit26
  %36 = phi ptr [ %.pre.i31, %_ZN9QtPrivate8RefCount5derefEv.exit._ZN9QtPrivate8RefCount5derefEv.exit.thread2_crit_edge.i30 ], [ %33, %_ZN7QStringD2Ev.exit26 ]
  call void @_ZN10QArrayData10deallocateEPS_mm(ptr noundef %36, i64 noundef 2, i64 noundef 8) #16
  br label %_ZN7QStringD2Ev.exit32

_ZN7QStringD2Ev.exit32:                           ; preds = %_ZN7QStringD2Ev.exit26, %_ZN9QtPrivate8RefCount5derefEv.exit.i28, %_ZN9QtPrivate8RefCount5derefEv.exit.thread2.i27
  %37 = call noundef ptr @_ZN7QString16fromAscii_helperEPKci(ptr noundef nonnull @.str.6, i32 noundef 1)
  store ptr %37, ptr %7, align 8
  %38 = getelementptr inbounds i8, ptr %0, i64 16
  %39 = load float, ptr %38, align 8
  %40 = fpext float %39 to double
  invoke void @_ZN7QString6numberEdci(ptr dead_on_unwind nonnull writable sret(%class.QString) align 8 %8, double noundef %40, i8 noundef signext 103, i32 noundef 6)
          to label %41 unwind label %59

41:                                               ; preds = %_ZN7QStringD2Ev.exit32
  invoke void @_ZN11QDomElement12setAttributeERK7QStringS2_(ptr noundef nonnull align 8 dereferenceable(8) %1, ptr noundef nonnull align 8 dereferenceable(8) %7, ptr noundef nonnull align 8 dereferenceable(8) %8)
          to label %42 unwind label %61

42:                                               ; preds = %41
  %43 = load ptr, ptr %8, align 8
  %44 = load atomic i32, ptr %43 monotonic, align 4
  switch i32 %44, label %_ZN9QtPrivate8RefCount5derefEv.exit.i34 [
    i32 0, label %_ZN9QtPrivate8RefCount5derefEv.exit.thread2.i33
    i32 -1, label %_ZN7QStringD2Ev.exit38
  ]

_ZN9QtPrivate8RefCount5derefEv.exit.i34:          ; preds = %42
  %45 = atomicrmw sub ptr %43, i32 1 seq_cst, align 4
  %.not.i35 = icmp eq i32 %45, 1
  br i1 %.not.i35, label %_ZN9QtPrivate8RefCount5derefEv.exit._ZN9QtPrivate8RefCount5derefEv.exit.thread2_crit_edge.i36, label %_ZN7QStringD2Ev.exit38

_ZN9QtPrivate8RefCount5derefEv.exit._ZN9QtPrivate8RefCount5derefEv.exit.thread2_crit_edge.i36: ; preds = %_ZN9QtPrivate8RefCount5derefEv.exit.i34
  %.pre.i37 = load ptr, ptr %8, align 8
  br label %_ZN9QtPrivate8RefCount5derefEv.exit.thread2.i33

_ZN9QtPrivate8RefCount5derefEv.exit.thread2.i33:  ; preds = %_ZN9QtPrivate8RefCount5derefEv.exit._ZN9QtPrivate8RefCount5derefEv.exit.thread2_crit_edge.i36, %42
  %46 = phi ptr [ %.pre.i37, %_ZN9QtPrivate8RefCount5derefEv.exit._ZN9QtPrivate8RefCount5derefEv.exit.thread2_crit_edge.i36 ], [ %43, %42 ]
  call void @_ZN10QArrayData10deallocateEPS_mm(ptr noundef %46, i64 noundef 2, i64 noundef 8) #16
  br label %_ZN7QStringD2Ev.exit38

_ZN7QStringD2Ev.exit38:                           ; preds = %42, %_ZN9QtPrivate8RefCount5derefEv.exit.i34, %_ZN9QtPrivate8RefCount5derefEv.exit.thread2.i33
  %47 = load ptr, ptr %7, align 8
  %48 = load atomic i32, ptr %47 monotonic, align 4
  switch i32 %48, label %_ZN9QtPrivate8RefCount5derefEv.exit.i40 [
    i32 0, label %_ZN9QtPrivate8RefCount5derefEv.exit.thread2.i39
    i32 -1, label %_ZN7QStringD2Ev.exit44
  ]

_ZN9QtPrivate8RefCount5derefEv.exit.i40:          ; preds = %_ZN7QStringD2Ev.exit38
  %49 = atomicrmw sub ptr %47, i32 1 seq_cst, align 4
  %.not.i41 = icmp eq i32 %49, 1
  br i1 %.not.i41, label %_ZN9QtPrivate8RefCount5derefEv.exit._ZN9QtPrivate8RefCount5derefEv.exit.thread2_crit_edge.i42, label %_ZN7QStringD2Ev.exit44

_ZN9QtPrivate8RefCount5derefEv.exit._ZN9QtPrivate8RefCount5derefEv.exit.thread2_crit_edge.i42: ; preds = %_ZN9QtPrivate8RefCount5derefEv.exit.i40
  %.pre.i43 = load ptr, ptr %7, align 8
  br label %_ZN9QtPrivate8RefCount5derefEv.exit.thread2.i39

_ZN9QtPrivate8RefCount5derefEv.exit.thread2.i39:  ; preds = %_ZN9QtPrivate8RefCount5derefEv.exit._ZN9QtPrivate8RefCount5derefEv.exit.thread2_crit_edge.i42, %_ZN7QStringD2Ev.exit38
  %50 = phi ptr [ %.pre.i43, %_ZN9QtPrivate8RefCount5derefEv.exit._ZN9QtPrivate8RefCount5derefEv.exit.thread2_crit_edge.i42 ], [ %47, %_ZN7QStringD2Ev.exit38 ]
  call void @_ZN10QArrayData10deallocateEPS_mm(ptr noundef %50, i64 noundef 2, i64 noundef 8) #16
  br label %_ZN7QStringD2Ev.exit44

_ZN7QStringD2Ev.exit44:                           ; preds = %_ZN7QStringD2Ev.exit38, %_ZN9QtPrivate8RefCount5derefEv.exit.i40, %_ZN9QtPrivate8RefCount5derefEv.exit.thread2.i39
  ret void

51:                                               ; preds = %2
  %52 = landingpad { ptr, i32 }
          cleanup
  br label %63

53:                                               ; preds = %13
  %54 = landingpad { ptr, i32 }
          cleanup
  call void @_ZN7QStringD2Ev(ptr noundef nonnull align 8 dereferenceable(8) %4) #16
  br label %63

55:                                               ; preds = %_ZN7QStringD2Ev.exit20
  %56 = landingpad { ptr, i32 }
          cleanup
  br label %63

57:                                               ; preds = %27
  %58 = landingpad { ptr, i32 }
          cleanup
  call void @_ZN7QStringD2Ev(ptr noundef nonnull align 8 dereferenceable(8) %6) #16
  br label %63

59:                                               ; preds = %_ZN7QStringD2Ev.exit32
  %60 = landingpad { ptr, i32 }
          cleanup
  br label %63

61:                                               ; preds = %41
  %62 = landingpad { ptr, i32 }
          cleanup
  call void @_ZN7QStringD2Ev(ptr noundef nonnull align 8 dereferenceable(8) %8) #16
  br label %63

63:                                               ; preds = %59, %61, %55, %57, %51, %53
  %.sink = phi ptr [ %3, %53 ], [ %3, %51 ], [ %5, %57 ], [ %5, %55 ], [ %7, %61 ], [ %7, %59 ]
  %.pn12.pn = phi { ptr, i32 } [ %54, %53 ], [ %52, %51 ], [ %58, %57 ], [ %56, %55 ], [ %62, %61 ], [ %60, %59 ]
  call void @_ZN7QStringD2Ev(ptr noundef nonnull align 8 dereferenceable(8) %.sink) #16
  resume { ptr, i32 } %.pn12.pn
}